target datalayout = "e-m:e-p270:32:32-p271:32:32-p272:64:64-i64:64-i128:128-f80:128-n8:16:32:64-S128"
target triple = "x86_64-pc-linux-gnu"

%struct.mq = type { ptr, i32, i32, ptr, ptr, i64, ptr, i64, ptr, i64, ptr, i8, ptr, ptr, [10 x %struct.mq_item] }
%struct.mq_item = type { i32, i64, i64 }
%struct.mcclellan = type { i16, i32, i16, i16, i32, i32, i32, i16, i16, i16, i16, i8, i8, i8, i8, [256 x i8], i32, i32, i32, i32 }
%struct.gough_som_info = type { [1 x i64] }
%struct.mstate_aux = type { i32, i32, i16, i32 }
%struct.gough_report_list = type { i32, [0 x %struct.gough_report] }
%struct.gough_report = type { i32, i32 }

; Function Attrs: alwaysinline nounwind uwtable
define internal ptr @get_aux(ptr noundef %0, i32 noundef %1) #2 {
  %3 = alloca ptr, align 8
  %4 = alloca i32, align 4
  %5 = alloca ptr, align 8
  %6 = alloca ptr, align 8
  store ptr %0, ptr %3, align 8
  store i32 %1, ptr %4, align 4
  call void @llvm.lifetime.start.p0(i64 8, ptr %5) #10
  %7 = load ptr, ptr %3, align 8
  %8 = getelementptr inbounds i8, ptr %7, i64 -64
  store ptr %8, ptr %5, align 8
  call void @llvm.lifetime.start.p0(i64 8, ptr %6) #10
  %9 = load i32, ptr %4, align 4
  %10 = load ptr, ptr %5, align 8
  %11 = load ptr, ptr %3, align 8
  %12 = getelementptr inbounds nuw %struct.mcclellan, ptr %11, i32 0, i32 4
  %13 = load i32, ptr %12, align 4
  %14 = zext i32 %13 to i64
  %15 = getelementptr inbounds nuw i8, ptr %10, i64 %14
  %16 = zext i32 %9 to i64
  %17 = getelementptr inbounds nuw %struct.mstate_aux, ptr %15, i64 %16
  store ptr %17, ptr %6, align 8
  %18 = load ptr, ptr %6, align 8
  call void @llvm.lifetime.end.p0(i64 8, ptr %6) #10
  call void @llvm.lifetime.end.p0(i64 8, ptr %5) #10
  ret ptr %18
}

; Function Attrs: alwaysinline nounwind uwtable
define internal signext i8 @doReports(ptr noundef %0, ptr noundef %1, ptr noundef %2, ptr noundef %3, i16 noundef zeroext %4, i64 noundef %5, i8 noundef signext %6, ptr noundef %7, ptr noundef %8, ptr noundef %9) #2 {
  %11 = alloca i8, align 1
  %12 = alloca ptr, align 8
  %13 = alloca ptr, align 8
  %14 = alloca ptr, align 8
  %15 = alloca ptr, align 8
  %16 = alloca i16, align 2
  %17 = alloca i64, align 8
  %18 = alloca i8, align 1
  %19 = alloca ptr, align 8
  %20 = alloca ptr, align 8
  %21 = alloca ptr, align 8
  %22 = alloca i64, align 8
  %23 = alloca i32, align 4
  %24 = alloca ptr, align 8
  %25 = alloca i64, align 8
  %26 = alloca ptr, align 8
  %27 = alloca i32, align 4
  %28 = alloca i64, align 8
  %29 = alloca i32, align 4
  %30 = alloca i32, align 4
  %31 = alloca i64, align 8
  store ptr %0, ptr %12, align 8
  store ptr %1, ptr %13, align 8
  store ptr %2, ptr %14, align 8
  store ptr %3, ptr %15, align 8
  store i16 %4, ptr %16, align 2
  store i64 %5, ptr %17, align 8
  store i8 %6, ptr %18, align 1
  store ptr %7, ptr %19, align 8
  store ptr %8, ptr %20, align 8
  store ptr %9, ptr %21, align 8
  br label %32

32:                                               ; preds = %10
  br label %33

33:                                               ; preds = %32
  %34 = load i8, ptr %18, align 1
  %35 = icmp ne i8 %34, 0
  br i1 %35, label %70, label %36

36:                                               ; preds = %33
  %37 = load i16, ptr %16, align 2
  %38 = zext i16 %37 to i32
  %39 = load ptr, ptr %19, align 8
  %40 = load i16, ptr %39, align 2
  %41 = zext i16 %40 to i32
  %42 = icmp eq i32 %38, %41
  br i1 %42, label %43, label %70

43:                                               ; preds = %36
  call void @llvm.lifetime.start.p0(i64 8, ptr %22) #10
  %44 = load ptr, ptr %21, align 8
  %45 = load i32, ptr %44, align 4
  %46 = icmp eq i32 %45, -1
  br i1 %46, label %47, label %49

47:                                               ; preds = %43
  %48 = load i64, ptr %17, align 8
  br label %57

49:                                               ; preds = %43
  %50 = load ptr, ptr %15, align 8
  %51 = getelementptr inbounds nuw %struct.gough_som_info, ptr %50, i32 0, i32 0
  %52 = load ptr, ptr %21, align 8
  %53 = load i32, ptr %52, align 4
  %54 = zext i32 %53 to i64
  %55 = getelementptr inbounds nuw [1 x i64], ptr %51, i64 0, i64 %54
  %56 = load i64, ptr %55, align 8
  br label %57

57:                                               ; preds = %49, %47
  %58 = phi i64 [ %48, %47 ], [ %56, %49 ]
  store i64 %58, ptr %22, align 8
  %59 = load ptr, ptr %12, align 8
  %60 = load i64, ptr %22, align 8
  %61 = load i64, ptr %17, align 8
  %62 = load ptr, ptr %20, align 8
  %63 = load i32, ptr %62, align 4
  %64 = load ptr, ptr %13, align 8
  %65 = call i32 %59(i64 noundef %60, i64 noundef %61, i32 noundef %63, ptr noundef %64)
  %66 = icmp eq i32 %65, 0
  br i1 %66, label %67, label %68

67:                                               ; preds = %57
  store i8 0, ptr %11, align 1
  store i32 1, ptr %23, align 4
  br label %69

68:                                               ; preds = %57
  store i8 1, ptr %11, align 1
  store i32 1, ptr %23, align 4
  br label %69

69:                                               ; preds = %68, %67
  call void @llvm.lifetime.end.p0(i64 8, ptr %22) #10
  br label %203

70:                                               ; preds = %36, %33
  call void @llvm.lifetime.start.p0(i64 8, ptr %24) #10
  %71 = load ptr, ptr %14, align 8
  %72 = load i16, ptr %16, align 2
  %73 = zext i16 %72 to i32
  %74 = call ptr @get_aux(ptr noundef %71, i32 noundef %73)
  store ptr %74, ptr %24, align 8
  call void @llvm.lifetime.start.p0(i64 8, ptr %25) #10
  %75 = load i8, ptr %18, align 1
  %76 = sext i8 %75 to i32
  %77 = icmp ne i32 %76, 0
  br i1 %77, label %78, label %82

78:                                               ; preds = %70
  %79 = load ptr, ptr %24, align 8
  %80 = getelementptr inbounds nuw %struct.mstate_aux, ptr %79, i32 0, i32 1
  %81 = load i32, ptr %80, align 4
  br label %86

82:                                               ; preds = %70
  %83 = load ptr, ptr %24, align 8
  %84 = getelementptr inbounds nuw %struct.mstate_aux, ptr %83, i32 0, i32 0
  %85 = load i32, ptr %84, align 4
  br label %86

86:                                               ; preds = %82, %78
  %87 = phi i32 [ %81, %78 ], [ %85, %82 ]
  %88 = zext i32 %87 to i64
  store i64 %88, ptr %25, align 8
  call void @llvm.lifetime.start.p0(i64 8, ptr %26) #10
  %89 = load ptr, ptr %14, align 8
  %90 = load i64, ptr %25, align 8
  %91 = getelementptr inbounds nuw i8, ptr %89, i64 %90
  %92 = getelementptr inbounds i8, ptr %91, i64 -64
  store ptr %92, ptr %26, align 8
  br label %93

93:                                               ; preds = %86
  br label %94

94:                                               ; preds = %93
  br label %95

95:                                               ; preds = %94
  call void @llvm.lifetime.start.p0(i64 4, ptr %27) #10
  %96 = load ptr, ptr %26, align 8
  %97 = getelementptr inbounds nuw %struct.gough_report_list, ptr %96, i32 0, i32 0
  %98 = load i32, ptr %97, align 4
  store i32 %98, ptr %27, align 4
  %99 = load i8, ptr %18, align 1
  %100 = icmp ne i8 %99, 0
  br i1 %100, label %148, label %101

101:                                              ; preds = %95
  %102 = load i32, ptr %27, align 4
  %103 = icmp eq i32 %102, 1
  br i1 %103, label %104, label %148

104:                                              ; preds = %101
  %105 = load i16, ptr %16, align 2
  %106 = load ptr, ptr %19, align 8
  store i16 %105, ptr %106, align 2
  %107 = load ptr, ptr %26, align 8
  %108 = getelementptr inbounds nuw %struct.gough_report_list, ptr %107, i32 0, i32 1
  %109 = getelementptr inbounds [0 x %struct.gough_report], ptr %108, i64 0, i64 0
  %110 = getelementptr inbounds nuw %struct.gough_report, ptr %109, i32 0, i32 0
  %111 = load i32, ptr %110, align 4
  %112 = load ptr, ptr %20, align 8
  store i32 %111, ptr %112, align 4
  %113 = load ptr, ptr %26, align 8
  %114 = getelementptr inbounds nuw %struct.gough_report_list, ptr %113, i32 0, i32 1
  %115 = getelementptr inbounds [0 x %struct.gough_report], ptr %114, i64 0, i64 0
  %116 = getelementptr inbounds nuw %struct.gough_report, ptr %115, i32 0, i32 1
  %117 = load i32, ptr %116, align 4
  %118 = load ptr, ptr %21, align 8
  store i32 %117, ptr %118, align 4
  call void @llvm.lifetime.start.p0(i64 8, ptr %28) #10
  %119 = load ptr, ptr %21, align 8
  %120 = load i32, ptr %119, align 4
  %121 = icmp eq i32 %120, -1
  br i1 %121, label %122, label %124

122:                                              ; preds = %104
  %123 = load i64, ptr %17, align 8
  br label %132

124:                                              ; preds = %104
  %125 = load ptr, ptr %15, align 8
  %126 = getelementptr inbounds nuw %struct.gough_som_info, ptr %125, i32 0, i32 0
  %127 = load ptr, ptr %21, align 8
  %128 = load i32, ptr %127, align 4
  %129 = zext i32 %128 to i64
  %130 = getelementptr inbounds nuw [1 x i64], ptr %126, i64 0, i64 %129
  %131 = load i64, ptr %130, align 8
  br label %132

132:                                              ; preds = %124, %122
  %133 = phi i64 [ %123, %122 ], [ %131, %124 ]
  store i64 %133, ptr %28, align 8
  br label %134

134:                                              ; preds = %132
  br label %135

135:                                              ; preds = %134
  br label %136

136:                                              ; preds = %135
  %137 = load ptr, ptr %12, align 8
  %138 = load i64, ptr %28, align 8
  %139 = load i64, ptr %17, align 8
  %140 = load ptr, ptr %20, align 8
  %141 = load i32, ptr %140, align 4
  %142 = load ptr, ptr %13, align 8
  %143 = call i32 %137(i64 noundef %138, i64 noundef %139, i32 noundef %141, ptr noundef %142)
  %144 = icmp eq i32 %143, 0
  br i1 %144, label %145, label %146

145:                                              ; preds = %136
  store i8 0, ptr %11, align 1
  store i32 1, ptr %23, align 4
  br label %147

146:                                              ; preds = %136
  store i8 1, ptr %11, align 1
  store i32 1, ptr %23, align 4
  br label %147

147:                                              ; preds = %146, %145
  call void @llvm.lifetime.end.p0(i64 8, ptr %28) #10
  br label %202

148:                                              ; preds = %101, %95
  call void @llvm.lifetime.start.p0(i64 4, ptr %29) #10
  store i32 0, ptr %29, align 4
  br label %149

149:                                              ; preds = %196, %148
  %150 = load i32, ptr %29, align 4
  %151 = load i32, ptr %27, align 4
  %152 = icmp ult i32 %150, %151
  br i1 %152, label %154, label %153

153:                                              ; preds = %149
  store i32 8, ptr %23, align 4
  br label %199

154:                                              ; preds = %149
  call void @llvm.lifetime.start.p0(i64 4, ptr %30) #10
  %155 = load ptr, ptr %26, align 8
  %156 = getelementptr inbounds nuw %struct.gough_report_list, ptr %155, i32 0, i32 1
  %157 = load i32, ptr %29, align 4
  %158 = zext i32 %157 to i64
  %159 = getelementptr inbounds nuw [0 x %struct.gough_report], ptr %156, i64 0, i64 %158
  %160 = getelementptr inbounds nuw %struct.gough_report, ptr %159, i32 0, i32 1
  %161 = load i32, ptr %160, align 4
  store i32 %161, ptr %30, align 4
  call void @llvm.lifetime.start.p0(i64 8, ptr %31) #10
  %162 = load i32, ptr %30, align 4
  %163 = icmp eq i32 %162, -1
  br i1 %163, label %164, label %166

164:                                              ; preds = %154
  %165 = load i64, ptr %17, align 8
  br label %173

166:                                              ; preds = %154
  %167 = load ptr, ptr %15, align 8
  %168 = getelementptr inbounds nuw %struct.gough_som_info, ptr %167, i32 0, i32 0
  %169 = load i32, ptr %30, align 4
  %170 = zext i32 %169 to i64
  %171 = getelementptr inbounds nuw [1 x i64], ptr %168, i64 0, i64 %170
  %172 = load i64, ptr %171, align 8
  br label %173

173:                                              ; preds = %166, %164
  %174 = phi i64 [ %165, %164 ], [ %172, %166 ]
  store i64 %174, ptr %31, align 8
  br label %175

175:                                              ; preds = %173
  br label %176

176:                                              ; preds = %175
  br label %177

177:                                              ; preds = %176
  %178 = load ptr, ptr %12, align 8
  %179 = load i64, ptr %31, align 8
  %180 = load i64, ptr %17, align 8
  %181 = load ptr, ptr %26, align 8
  %182 = getelementptr inbounds nuw %struct.gough_report_list, ptr %181, i32 0, i32 1
  %183 = load i32, ptr %29, align 4
  %184 = zext i32 %183 to i64
  %185 = getelementptr inbounds nuw [0 x %struct.gough_report], ptr %182, i64 0, i64 %184
  %186 = getelementptr inbounds nuw %struct.gough_report, ptr %185, i32 0, i32 0
  %187 = load i32, ptr %186, align 4
  %188 = load ptr, ptr %13, align 8
  %189 = call i32 %178(i64 noundef %179, i64 noundef %180, i32 noundef %187, ptr noundef %188)
  %190 = icmp eq i32 %189, 0
  br i1 %190, label %191, label %192

191:                                              ; preds = %177
  store i8 0, ptr %11, align 1
  store i32 1, ptr %23, align 4
  br label %193

192:                                              ; preds = %177
  store i32 0, ptr %23, align 4
  br label %193

193:                                              ; preds = %192, %191
  call void @llvm.lifetime.end.p0(i64 8, ptr %31) #10
  call void @llvm.lifetime.end.p0(i64 4, ptr %30) #10
  %194 = load i32, ptr %23, align 4
  switch i32 %194, label %199 [
    i32 0, label %195
  ]

195:                                              ; preds = %193
  br label %196

196:                                              ; preds = %195
  %197 = load i32, ptr %29, align 4
  %198 = add i32 %197, 1
  store i32 %198, ptr %29, align 4
  br label %149

199:                                              ; preds = %193, %153
  call void @llvm.lifetime.end.p0(i64 4, ptr %29) #10
  %200 = load i32, ptr %23, align 4
  switch i32 %200, label %202 [
    i32 8, label %201
  ]

201:                                              ; preds = %199
  store i8 1, ptr %11, align 1
  store i32 1, ptr %23, align 4
  br label %202

202:                                              ; preds = %201, %199, %147
  call void @llvm.lifetime.end.p0(i64 4, ptr %27) #10
  call void @llvm.lifetime.end.p0(i64 8, ptr %26) #10
  call void @llvm.lifetime.end.p0(i64 8, ptr %25) #10
  call void @llvm.lifetime.end.p0(i64 8, ptr %24) #10
  br label %203

203:                                              ; preds = %202, %69
  %204 = load i8, ptr %11, align 1
  ret i8 %204
}

; Function Attrs: alwaysinline nounwind uwtable
define internal ptr @getSomInfo(ptr noundef %0) #2 {
  %2 = alloca ptr, align 8
  store ptr %0, ptr %2, align 8
  %3 = load ptr, ptr %2, align 8
  %4 = getelementptr inbounds i8, ptr %3, i64 16
  ret ptr %4
}

; Function Attrs: alwaysinline nounwind uwtable
define internal i64 @q_cur_offset(ptr noundef %0) #2 {
  %2 = alloca ptr, align 8
  store ptr %0, ptr %2, align 8
  %3 = load ptr, ptr %2, align 8
  %4 = getelementptr inbounds nuw %struct.mq, ptr %3, i32 0, i32 5
  %5 = load i64, ptr %4, align 8
  %6 = load ptr, ptr %2, align 8
  %7 = getelementptr inbounds nuw %struct.mq, ptr %6, i32 0, i32 14
  %8 = load ptr, ptr %2, align 8
  %9 = getelementptr inbounds nuw %struct.mq, ptr %8, i32 0, i32 1
  %10 = load i32, ptr %9, align 8
  %11 = zext i32 %10 to i64
  %12 = getelementptr inbounds nuw [10 x %struct.mq_item], ptr %7, i64 0, i64 %11
  %13 = getelementptr inbounds nuw %struct.mq_item, ptr %12, i32 0, i32 1
  %14 = load i64, ptr %13, align 8
  %15 = add i64 %5, %14
  ret i64 %15
}

; Function Attrs: nounwind uwtable
define hidden signext i8 @nfaExecGough8_reportCurrent(ptr noundef %0, ptr noundef %1) #0 {
  %3 = alloca ptr, align 8
  %4 = alloca ptr, align 8
  %5 = alloca ptr, align 8
  %6 = alloca ptr, align 8
  %7 = alloca ptr, align 8
  %8 = alloca i8, align 1
  %9 = alloca i64, align 8
  %10 = alloca ptr, align 8
  %11 = alloca i32, align 4
  %12 = alloca i16, align 2
  %13 = alloca i32, align 4
  store ptr %0, ptr %3, align 8
  store ptr %1, ptr %4, align 8
  call void @llvm.lifetime.start.p0(i64 8, ptr %5) #10
  %14 = load ptr, ptr %3, align 8
  %15 = getelementptr inbounds nuw i8, ptr %14, i64 64
  store ptr %15, ptr %5, align 8
  call void @llvm.lifetime.start.p0(i64 8, ptr %6) #10
  %16 = load ptr, ptr %4, align 8
  %17 = getelementptr inbounds nuw %struct.mq, ptr %16, i32 0, i32 12
  %18 = load ptr, ptr %17, align 8
  store ptr %18, ptr %6, align 8
  call void @llvm.lifetime.start.p0(i64 8, ptr %7) #10
  %19 = load ptr, ptr %4, align 8
  %20 = getelementptr inbounds nuw %struct.mq, ptr %19, i32 0, i32 13
  %21 = load ptr, ptr %20, align 8
  store ptr %21, ptr %7, align 8
  call void @llvm.lifetime.start.p0(i64 1, ptr %8) #10
  %22 = load ptr, ptr %4, align 8
  %23 = getelementptr inbounds nuw %struct.mq, ptr %22, i32 0, i32 3
  %24 = load ptr, ptr %23, align 8
  %25 = load i8, ptr %24, align 1
  store i8 %25, ptr %8, align 1
  call void @llvm.lifetime.start.p0(i64 8, ptr %9) #10
  %26 = load ptr, ptr %4, align 8
  %27 = call i64 @q_cur_offset(ptr noundef %26)
  store i64 %27, ptr %9, align 8
  call void @llvm.lifetime.start.p0(i64 8, ptr %10) #10
  %28 = load ptr, ptr %4, align 8
  %29 = getelementptr inbounds nuw %struct.mq, ptr %28, i32 0, i32 3
  %30 = load ptr, ptr %29, align 8
  %31 = call ptr @getSomInfo(ptr noundef %30)
  store ptr %31, ptr %10, align 8
  %32 = load i8, ptr %8, align 1
  %33 = zext i8 %32 to i32
  %34 = load ptr, ptr %5, align 8
  %35 = getelementptr inbounds nuw %struct.mcclellan, ptr %34, i32 0, i32 8
  %36 = load i16, ptr %35, align 2
  %37 = zext i16 %36 to i32
  %38 = icmp sge i32 %33, %37
  br i1 %38, label %39, label %48

39:                                               ; preds = %2
  call void @llvm.lifetime.start.p0(i64 4, ptr %11) #10
  store i32 0, ptr %11, align 4
  call void @llvm.lifetime.start.p0(i64 2, ptr %12) #10
  store i16 0, ptr %12, align 2
  call void @llvm.lifetime.start.p0(i64 4, ptr %13) #10
  store i32 0, ptr %13, align 4
  %40 = load ptr, ptr %6, align 8
  %41 = load ptr, ptr %7, align 8
  %42 = load ptr, ptr %5, align 8
  %43 = load ptr, ptr %10, align 8
  %44 = load i8, ptr %8, align 1
  %45 = zext i8 %44 to i16
  %46 = load i64, ptr %9, align 8
  %47 = call signext i8 @doReports(ptr noundef %40, ptr noundef %41, ptr noundef %42, ptr noundef %43, i16 noundef zeroext %45, i64 noundef %46, i8 noundef signext 0, ptr noundef %12, ptr noundef %11, ptr noundef %13)
  call void @llvm.lifetime.end.p0(i64 4, ptr %13) #10
  call void @llvm.lifetime.end.p0(i64 2, ptr %12) #10
  call void @llvm.lifetime.end.p0(i64 4, ptr %11) #10
  br label %48

48:                                               ; preds = %39, %2
  call void @llvm.lifetime.end.p0(i64 8, ptr %10) #10
  call void @llvm.lifetime.end.p0(i64 8, ptr %9) #10
  call void @llvm.lifetime.end.p0(i64 1, ptr %8) #10
  call void @llvm.lifetime.end.p0(i64 8, ptr %7) #10
  call void @llvm.lifetime.end.p0(i64 8, ptr %6) #10
  call void @llvm.lifetime.end.p0(i64 8, ptr %5) #10
  ret i8 0
}