; Function Attrs: nounwind uwtable
define hidden noundef signext i8 @nfaExecGough8_reportCurrent(ptr noundef readonly captures(none) %0, ptr noundef readonly captures(none) %1) local_unnamed_addr #0 {
  %3 = getelementptr inbounds nuw i8, ptr %1, i64 88
  %4 = load ptr, ptr %3, align 8
  %5 = getelementptr inbounds nuw i8, ptr %1, i64 96
  %6 = load ptr, ptr %5, align 8
  %7 = getelementptr inbounds nuw i8, ptr %1, i64 16
  %8 = load ptr, ptr %7, align 8
  %9 = load i8, ptr %8, align 1
  %10 = getelementptr inbounds nuw i8, ptr %1, i64 32
  %11 = load i64, ptr %10, align 8
  %12 = getelementptr inbounds nuw i8, ptr %1, i64 8
  %13 = load i32, ptr %12, align 8
  %14 = zext i32 %13 to i64
  %.idx.i = mul nuw nsw i64 %14, 24
  %15 = getelementptr i8, ptr %1, i64 112
  %16 = getelementptr i8, ptr %15, i64 %.idx.i
  %17 = load i64, ptr %16, align 8
  %18 = add i64 %17, %11
  %19 = getelementptr inbounds nuw i8, ptr %8, i64 16
  %20 = getelementptr inbounds nuw i8, ptr %0, i64 90
  %21 = load i16, ptr %20, align 2
  %22 = zext i8 %9 to i16
  %.not = icmp ugt i16 %21, %22
  br i1 %.not, label %doReports.exit, label %23

23:                                               ; preds = %2
  %24 = icmp eq i8 %9, 0
  br i1 %24, label %25, label %28

25:                                               ; preds = %23
  %26 = load i64, ptr %19, align 8
  %27 = tail call i32 %4(i64 noundef %26, i64 noundef %18, i32 noundef 0, ptr noundef %6) #14
  br label %doReports.exit

28:                                               ; preds = %23
  %29 = getelementptr inbounds nuw i8, ptr %0, i64 64
  %30 = getelementptr inbounds nuw i8, ptr %0, i64 76
  %31 = load i32, ptr %30, align 4
  %32 = zext i32 %31 to i64
  %33 = getelementptr inbounds nuw i8, ptr %0, i64 %32
  %34 = zext i8 %9 to i64
  %35 = getelementptr inbounds nuw %struct.mstate_aux, ptr %33, i64 %34
  %36 = load i32, ptr %35, align 4
  %37 = zext i32 %36 to i64
  %38 = getelementptr inbounds nuw i8, ptr %29, i64 %37
  %39 = getelementptr inbounds i8, ptr %38, i64 -64
  %40 = load i32, ptr %39, align 4
  switch i32 %40, label %.lr.ph [
    i32 1, label %42
    i32 0, label %doReports.exit
  ]

.lr.ph:                                           ; preds = %28
  %41 = getelementptr inbounds i8, ptr %38, i64 -60
  %wide.trip.count = zext i32 %40 to i64
  br label %55

42:                                               ; preds = %28
  %43 = getelementptr inbounds i8, ptr %38, i64 -60
  %44 = load i32, ptr %43, align 4
  %45 = getelementptr inbounds i8, ptr %38, i64 -56
  %46 = load i32, ptr %45, align 4
  %47 = icmp eq i32 %46, -1
  br i1 %47, label %52, label %48

48:                                               ; preds = %42
  %49 = zext i32 %46 to i64
  %50 = getelementptr inbounds nuw [1 x i64], ptr %19, i64 0, i64 %49
  %51 = load i64, ptr %50, align 8
  br label %52

52:                                               ; preds = %48, %42
  %53 = phi i64 [ %51, %48 ], [ %18, %42 ]
  %54 = tail call i32 %4(i64 noundef %53, i64 noundef %18, i32 noundef %44, ptr noundef %6) #14
  br label %doReports.exit

55:                                               ; preds = %64, %.lr.ph
  %indvars.iv = phi i64 [ 0, %.lr.ph ], [ %indvars.iv.next, %64 ]
  %56 = getelementptr inbounds nuw [0 x %struct.gough_report], ptr %41, i64 0, i64 %indvars.iv
  %57 = getelementptr inbounds nuw i8, ptr %56, i64 4
  %58 = load i32, ptr %57, align 4
  %59 = icmp eq i32 %58, -1
  br i1 %59, label %64, label %60

60:                                               ; preds = %55
  %61 = zext i32 %58 to i64
  %62 = getelementptr inbounds nuw [1 x i64], ptr %19, i64 0, i64 %61
  %63 = load i64, ptr %62, align 8
  br label %64

64:                                               ; preds = %60, %55
  %65 = phi i64 [ %63, %60 ], [ %18, %55 ]
  %66 = load i32, ptr %56, align 4
  %67 = tail call i32 %4(i64 noundef %65, i64 noundef %18, i32 noundef %66, ptr noundef %6) #14
  %.not63.i = icmp eq i32 %67, 0
  %indvars.iv.next = add nuw nsw i64 %indvars.iv, 1
  %exitcond.not = icmp eq i64 %indvars.iv.next, %wide.trip.count
  %or.cond = select i1 %.not63.i, i1 true, i1 %exitcond.not
  br i1 %or.cond, label %doReports.exit, label %55

doReports.exit:                                   ; preds = %64, %28, %52, %25, %2
  ret i8 0
}